target datalayout = "e-m:e-p270:32:32-p271:32:32-p272:64:64-i64:64-i128:128-f80:128-n8:16:32:64-S128"
target triple = "x86_64-unknown-linux-gnu"

%"class.icu_75::MessageFormat" = type { %"class.icu_75::Format.base", [6 x i8], %"class.icu_75::Locale", %"class.icu_75::MessagePattern", ptr, i32, ptr, i32, i32, i8, ptr, ptr, ptr, ptr, %"class.icu_75::MessageFormat::PluralSelectorProvider", %"class.icu_75::MessageFormat::PluralSelectorProvider" }
%"class.icu_75::Format.base" = type <{ %"class.icu_75::UObject", [157 x i8], [157 x i8] }>
%"class.icu_75::UObject" = type { ptr }
%"class.icu_75::Locale" = type <{ %"class.icu_75::UObject", [12 x i8], [6 x i8], [4 x i8], [2 x i8], i32, [4 x i8], ptr, [157 x i8], [3 x i8], ptr, i8, [7 x i8] }>
%"class.icu_75::MessagePattern" = type <{ %"class.icu_75::UObject", i32, [4 x i8], %"class.icu_75::UnicodeString", ptr, ptr, i32, [4 x i8], ptr, ptr, i32, i8, i8, i8, i8 }>
%"class.icu_75::UnicodeString" = type { %"class.icu_75::Replaceable", %"union.icu_75::UnicodeString::StackBufferOrFields" }
%"class.icu_75::Replaceable" = type { %"class.icu_75::UObject" }
%"union.icu_75::UnicodeString::StackBufferOrFields" = type { %struct.anon.0, [32 x i8] }
%struct.anon.0 = type { i16, i32, i32, ptr }
%"class.icu_75::MessageFormat::PluralSelectorProvider" = type <{ %"class.icu_75::PluralFormat::PluralSelector", ptr, ptr, i32, [4 x i8] }>
%"class.icu_75::PluralFormat::PluralSelector" = type { ptr }

; Function Attrs: mustprogress uwtable
define void @_ZN6icu_7513MessageFormat12resetPatternEv(ptr noundef nonnull align 8 dereferenceable(816) %this) #1 align 2 {
entry:
  %this.addr = alloca ptr, align 8
  store ptr %this, ptr %this.addr, align 8
  %this1 = load ptr, ptr %this.addr, align 8
  %msgPattern = getelementptr inbounds %"class.icu_75::MessageFormat", ptr %this1, i32 0, i32 3
  call void @_ZN6icu_7514MessagePattern5clearEv(ptr noundef nonnull align 8 dereferenceable(127) %msgPattern)
  %cachedFormatters = getelementptr inbounds %"class.icu_75::MessageFormat", ptr %this1, i32 0, i32 12
  %0 = load ptr, ptr %cachedFormatters, align 8
  call void @uhash_close_75(ptr noundef %0)
  %cachedFormatters2 = getelementptr inbounds %"class.icu_75::MessageFormat", ptr %this1, i32 0, i32 12
  store ptr null, ptr %cachedFormatters2, align 8
  %customFormatArgStarts = getelementptr inbounds %"class.icu_75::MessageFormat", ptr %this1, i32 0, i32 13
  %1 = load ptr, ptr %customFormatArgStarts, align 8
  call void @uhash_close_75(ptr noundef %1)
  %customFormatArgStarts3 = getelementptr inbounds %"class.icu_75::MessageFormat", ptr %this1, i32 0, i32 13
  store ptr null, ptr %customFormatArgStarts3, align 8
  %argTypeCount = getelementptr inbounds %"class.icu_75::MessageFormat", ptr %this1, i32 0, i32 7
  store i32 0, ptr %argTypeCount, align 8
  %hasArgTypeConflicts = getelementptr inbounds %"class.icu_75::MessageFormat", ptr %this1, i32 0, i32 9
  store i8 0, ptr %hasArgTypeConflicts, align 8
  ret void
}

; Function Attrs: mustprogress nounwind uwtable
define internal noundef signext i8 @_ZL9U_FAILURE10UErrorCode(i32 noundef %code) #0 {
entry:
  %code.addr = alloca i32, align 4
  store i32 %code, ptr %code.addr, align 4
  %0 = load i32, ptr %code.addr, align 4
  %cmp = icmp sgt i32 %0, 0
  %conv = zext i1 %cmp to i8
  ret i8 %conv
}

; Function Attrs: mustprogress uwtable
define void @_ZN6icu_7513MessageFormat12applyPatternERKNS_13UnicodeStringER11UParseErrorR10UErrorCode(ptr noundef nonnull align 8 dereferenceable(816) %this, ptr noundef nonnull align 8 dereferenceable(64) %pattern, ptr noundef nonnull align 4 dereferenceable(72) %parseError, ptr noundef nonnull align 4 dereferenceable(4) %ec) unnamed_addr #1 align 2 {
entry:
  %this.addr = alloca ptr, align 8
  %pattern.addr = alloca ptr, align 8
  %parseError.addr = alloca ptr, align 8
  %ec.addr = alloca ptr, align 8
  store ptr %this, ptr %this.addr, align 8
  store ptr %pattern, ptr %pattern.addr, align 8
  store ptr %parseError, ptr %parseError.addr, align 8
  store ptr %ec, ptr %ec.addr, align 8
  %this1 = load ptr, ptr %this.addr, align 8
  %0 = load ptr, ptr %ec.addr, align 8
  %1 = load i32, ptr %0, align 4
  %call = call noundef signext i8 @_ZL9U_FAILURE10UErrorCode(i32 noundef %1)
  %tobool = icmp ne i8 %call, 0
  br i1 %tobool, label %if.then, label %if.end

if.then:                                          ; preds = %entry
  br label %if.end6

if.end:                                           ; preds = %entry
  %msgPattern = getelementptr inbounds %"class.icu_75::MessageFormat", ptr %this1, i32 0, i32 3
  %2 = load ptr, ptr %pattern.addr, align 8
  %3 = load ptr, ptr %parseError.addr, align 8
  %4 = load ptr, ptr %ec.addr, align 8
  %call2 = call noundef nonnull align 8 dereferenceable(127) ptr @_ZN6icu_7514MessagePattern5parseERKNS_13UnicodeStringEP11UParseErrorR10UErrorCode(ptr noundef nonnull align 8 dereferenceable(127) %msgPattern, ptr noundef nonnull align 8 dereferenceable(64) %2, ptr noundef %3, ptr noundef nonnull align 4 dereferenceable(4) %4)
  %5 = load ptr, ptr %ec.addr, align 8
  call void @_ZN6icu_7513MessageFormat20cacheExplicitFormatsER10UErrorCode(ptr noundef nonnull align 8 dereferenceable(816) %this1, ptr noundef nonnull align 4 dereferenceable(4) %5)
  %6 = load ptr, ptr %ec.addr, align 8
  %7 = load i32, ptr %6, align 4
  %call3 = call noundef signext i8 @_ZL9U_FAILURE10UErrorCode(i32 noundef %7)
  %tobool4 = icmp ne i8 %call3, 0
  br i1 %tobool4, label %if.then5, label %if.end6

if.then5:                                         ; preds = %if.end
  call void @_ZN6icu_7513MessageFormat12resetPatternEv(ptr noundef nonnull align 8 dereferenceable(816) %this1)
  br label %if.end6

if.end6:                                          ; preds = %if.then5, %if.end, %if.then
  ret void
}