; Function Attrs: mustprogress uwtable
define void @_ZN6icu_7513MessageFormat12applyPatternERKNS_13UnicodeStringER11UParseErrorR10UErrorCode(ptr noundef nonnull align 8 dereferenceable(816) %this, ptr noundef nonnull align 8 dereferenceable(64) %pattern, ptr noundef nonnull align 4 dereferenceable(72) %parseError, ptr noundef nonnull align 4 dereferenceable(4) %ec) unnamed_addr #1 align 2 {
entry:
  %0 = load i32, ptr %ec, align 4
  %cmp.i = icmp slt i32 %0, 1
  br i1 %cmp.i, label %if.end, label %if.end6

if.end:                                           ; preds = %entry
  %msgPattern = getelementptr inbounds i8, ptr %this, i64 552
  %call2 = tail call noundef nonnull align 8 dereferenceable(127) ptr @_ZN6icu_7514MessagePattern5parseERKNS_13UnicodeStringEP11UParseErrorR10UErrorCode(ptr noundef nonnull align 8 dereferenceable(127) %msgPattern, ptr noundef nonnull align 8 dereferenceable(64) %pattern, ptr noundef nonnull %parseError, ptr noundef nonnull align 4 dereferenceable(4) %ec)
  tail call void @_ZN6icu_7513MessageFormat20cacheExplicitFormatsER10UErrorCode(ptr noundef nonnull align 8 dereferenceable(816) %this, ptr noundef nonnull align 4 dereferenceable(4) %ec)
  %1 = load i32, ptr %ec, align 4
  %cmp.i4 = icmp slt i32 %1, 1
  br i1 %cmp.i4, label %if.end6, label %if.then5

if.then5:                                         ; preds = %if.end
  tail call void @_ZN6icu_7514MessagePattern5clearEv(ptr noundef nonnull align 8 dereferenceable(127) %msgPattern)
  %cachedFormatters.i = getelementptr inbounds i8, ptr %this, i64 736
  %2 = load ptr, ptr %cachedFormatters.i, align 8
  tail call void @uhash_close_75(ptr noundef %2)
  store ptr null, ptr %cachedFormatters.i, align 8
  %customFormatArgStarts.i = getelementptr inbounds i8, ptr %this, i64 744
  %3 = load ptr, ptr %customFormatArgStarts.i, align 8
  tail call void @uhash_close_75(ptr noundef %3)
  store ptr null, ptr %customFormatArgStarts.i, align 8
  %argTypeCount.i = getelementptr inbounds i8, ptr %this, i64 704
  store i32 0, ptr %argTypeCount.i, align 8
  %hasArgTypeConflicts.i = getelementptr inbounds i8, ptr %this, i64 712
  store i8 0, ptr %hasArgTypeConflicts.i, align 8
  br label %if.end6

if.end6:                                          ; preds = %entry, %if.then5, %if.end
  ret void
}